target datalayout = "e-m:e-p270:32:32-p271:32:32-p272:64:64-i64:64-i128:128-f80:128-n8:16:32:64-S128"
target triple = "x86_64-pc-linux-gnu"

%"class.std::__cxx11::basic_string" = type { %"struct.std::__cxx11::basic_string<char>::_Alloc_hider", i64, %union.anon }
%"struct.std::__cxx11::basic_string<char>::_Alloc_hider" = type { ptr }
%union.anon = type { i64, [8 x i8] }
%"struct.std::_Rb_tree_header" = type { %"struct.std::_Rb_tree_node_base", i64 }
%"struct.std::_Rb_tree_node_base" = type { i32, ptr, ptr, ptr }
%class.cmTargetExport = type { %"class.std::__cxx11::basic_string", ptr, ptr, ptr, ptr, ptr, ptr, ptr, ptr, %"class.std::map.56", ptr, i8, %"class.std::__cxx11::basic_string" }
%"class.std::map.56" = type { %"class.std::_Rb_tree.57" }
%"class.std::_Rb_tree.57" = type { %"struct.std::_Rb_tree<cmFileSet *, std::pair<cmFileSet *const, cmInstallFileSetGenerator *>, std::_Select1st<std::pair<cmFileSet *const, cmInstallFileSetGenerator *>>, std::less<cmFileSet *>>::_Rb_tree_impl" }
%"struct.std::_Rb_tree<cmFileSet *, std::pair<cmFileSet *const, cmInstallFileSetGenerator *>, std::_Select1st<std::pair<cmFileSet *const, cmInstallFileSetGenerator *>>, std::less<cmFileSet *>>::_Rb_tree_impl" = type { %"struct.std::_Rb_tree_key_compare.61", %"struct.std::_Rb_tree_header" }
%"struct.std::_Rb_tree_key_compare.61" = type { %"struct.std::less.62" }
%"struct.std::less.62" = type { i8 }

; Function Attrs: mustprogress uwtable
define dso_local noundef i32 @_ZNK28cmExportInstallFileGenerator19GetExportTargetTypeEPK14cmTargetExport(ptr noundef nonnull align 8 dereferenceable(496) %0, ptr noundef %1) #4 align 2 {
  %3 = alloca ptr, align 8
  %4 = alloca ptr, align 8
  %5 = alloca i32, align 4
  store ptr %0, ptr %3, align 8
  store ptr %1, ptr %4, align 8
  %6 = load ptr, ptr %4, align 8
  %7 = getelementptr inbounds %class.cmTargetExport, ptr %6, i32 0, i32 1
  %8 = load ptr, ptr %7, align 8
  %9 = call noundef i32 @_ZNK17cmGeneratorTarget7GetTypeEv(ptr noundef nonnull align 8 dereferenceable(2728) %8)
  store i32 %9, ptr %5, align 4
  %10 = load i32, ptr %5, align 4
  %11 = icmp eq i32 %10, 4
  br i1 %11, label %12, label %18

12:                                               ; preds = %2
  %13 = load ptr, ptr %4, align 8
  %14 = getelementptr inbounds %class.cmTargetExport, ptr %13, i32 0, i32 5
  %15 = load ptr, ptr %14, align 8
  %16 = icmp eq ptr %15, null
  br i1 %16, label %17, label %18

17:                                               ; preds = %12
  store i32 7, ptr %5, align 4
  br label %18

18:                                               ; preds = %17, %12, %2
  %19 = load i32, ptr %5, align 4
  ret i32 %19
}