; Function Attrs: mustprogress uwtable
define dso_local noundef i32 @_ZNK28cmExportInstallFileGenerator19GetExportTargetTypeEPK14cmTargetExport(ptr nocapture noundef nonnull readnone align 8 dereferenceable(496) %0, ptr nocapture noundef readonly %1) local_unnamed_addr #3 align 2 {
  %3 = getelementptr inbounds i8, ptr %1, i64 32
  %4 = load ptr, ptr %3, align 8
  %5 = tail call noundef i32 @_ZNK17cmGeneratorTarget7GetTypeEv(ptr noundef nonnull align 8 dereferenceable(2728) %4)
  %6 = icmp eq i32 %5, 4
  br i1 %6, label %7, label %11

7:                                                ; preds = %2
  %8 = getelementptr inbounds i8, ptr %1, i64 64
  %9 = load ptr, ptr %8, align 8
  %10 = icmp eq ptr %9, null
  %spec.select = select i1 %10, i32 7, i32 4
  br label %11

11:                                               ; preds = %7, %2
  %.0 = phi i32 [ %5, %2 ], [ %spec.select, %7 ]
  ret i32 %.0
}